target datalayout = "e-m:e-p270:32:32-p271:32:32-p272:64:64-i64:64-i128:128-f80:128-n8:16:32:64-S128"
target triple = "x86_64-pc-linux-gnu"

%struct.NMTUsageOptions = type { i8, i8, i8 }
%class.MallocMemorySnapshot = type { [28 x %class.MallocMemory], %class.MemoryCounter }
%class.MallocMemory = type { %class.MemoryCounter, %class.MemoryCounter }
%class.MemoryCounter = type { i64, i64, i64, i64 }
%class.NMTUsage = type <{ [28 x i64], i64, [28 x %struct.NMTUsagePair], %struct.NMTUsagePair, %struct.NMTUsageOptions, [5 x i8] }>
%struct.NMTUsagePair = type { i64, i64 }
%class.ThreadCritical = type { i8 }
%"struct.Atomic::LoadImpl" = type { i8 }
%"struct.Atomic::PlatformLoad" = type { i8 }

@_ZN19MallocMemorySummary9_snapshotE = external global %class.MallocMemorySnapshot, align 8

; Function Attrs: mustprogress nounwind uwtable
define linkonce_odr hidden noundef i64 @_ZNK6Atomic12PlatformLoadILm8EEclImEET_PVKS3_(ptr noundef nonnull align 1 dereferenceable(1) %0, ptr noundef %1) #1 comdat align 2 {
  %3 = alloca ptr, align 8
  %4 = alloca ptr, align 8
  store ptr %0, ptr %3, align 8
  store ptr %1, ptr %4, align 8
  %5 = load ptr, ptr %4, align 8
  %6 = load volatile i64, ptr %5, align 8
  ret i64 %6
}

; Function Attrs: mustprogress nounwind uwtable
define linkonce_odr hidden noundef i64 @_ZNK6Atomic8LoadImplImNS_12PlatformLoadILm8EEEvEclEPVKm(ptr noundef nonnull align 1 dereferenceable(1) %0, ptr noundef %1) #1 comdat align 2 {
  %3 = alloca ptr, align 8
  %4 = alloca ptr, align 8
  %5 = alloca %"struct.Atomic::PlatformLoad", align 1
  store ptr %0, ptr %3, align 8
  store ptr %1, ptr %4, align 8
  %6 = load ptr, ptr %4, align 8
  %7 = call noundef i64 @_ZNK6Atomic12PlatformLoadILm8EEclImEET_PVKS3_(ptr noundef nonnull align 1 dereferenceable(1) %5, ptr noundef %6)
  ret i64 %7
}

; Function Attrs: mustprogress nounwind uwtable
define linkonce_odr hidden noundef i64 @_ZN6Atomic4loadImEET_PVKS1_(ptr noundef %0) #1 comdat align 2 {
  %2 = alloca ptr, align 8
  %3 = alloca %"struct.Atomic::LoadImpl", align 1
  store ptr %0, ptr %2, align 8
  %4 = load ptr, ptr %2, align 8
  %5 = call noundef i64 @_ZNK6Atomic8LoadImplImNS_12PlatformLoadILm8EEEvEclEPVKm(ptr noundef nonnull align 1 dereferenceable(1) %3, ptr noundef %4)
  ret i64 %5
}

; Function Attrs: mustprogress nounwind uwtable
define linkonce_odr hidden noundef i64 @_ZNK13MemoryCounter5countEv(ptr noundef nonnull align 8 dereferenceable(32) %0) #1 comdat align 2 {
  %2 = alloca ptr, align 8
  store ptr %0, ptr %2, align 8
  %3 = load ptr, ptr %2, align 8
  %4 = getelementptr inbounds %class.MemoryCounter, ptr %3, i32 0, i32 0
  %5 = call noundef i64 @_ZN6Atomic4loadImEET_PVKS1_(ptr noundef %4)
  ret i64 %5
}

; Function Attrs: mustprogress nounwind uwtable
define linkonce_odr hidden noundef i64 @_ZNK13MemoryCounter4sizeEv(ptr noundef nonnull align 8 dereferenceable(32) %0) #1 comdat align 2 {
  %2 = alloca ptr, align 8
  store ptr %0, ptr %2, align 8
  %3 = load ptr, ptr %2, align 8
  %4 = getelementptr inbounds %class.MemoryCounter, ptr %3, i32 0, i32 1
  %5 = call noundef i64 @_ZN6Atomic4loadImEET_PVKS1_(ptr noundef %4)
  ret i64 %5
}

; Function Attrs: mustprogress nounwind uwtable
define linkonce_odr hidden noundef i64 @_ZNK20MallocMemorySnapshot15malloc_overheadEv(ptr noundef nonnull align 8 dereferenceable(1824) %0) #1 comdat align 2 {
  %2 = alloca ptr, align 8
  store ptr %0, ptr %2, align 8
  %3 = load ptr, ptr %2, align 8
  %4 = getelementptr inbounds %class.MallocMemorySnapshot, ptr %3, i32 0, i32 1
  %5 = call noundef i64 @_ZNK13MemoryCounter5countEv(ptr noundef nonnull align 8 dereferenceable(32) %4)
  %6 = mul i64 %5, 16
  ret i64 %6
}

; Function Attrs: mustprogress nounwind uwtable
define linkonce_odr hidden noundef i32 @_ZN7NMTUtil13flag_to_indexE8MEMFLAGS(i8 noundef zeroext %0) #1 comdat align 2 {
  %2 = alloca i8, align 1
  store i8 %0, ptr %2, align 1
  %3 = load i8, ptr %2, align 1
  %4 = zext i8 %3 to i32
  ret i32 %4
}

; Function Attrs: mustprogress nounwind uwtable
define linkonce_odr hidden noundef i64 @_ZNK20MallocMemorySnapshot5totalEv(ptr noundef nonnull align 8 dereferenceable(1824) %0) #1 comdat align 2 {
  %2 = alloca ptr, align 8
  store ptr %0, ptr %2, align 8
  %3 = load ptr, ptr %2, align 8
  %4 = getelementptr inbounds %class.MallocMemorySnapshot, ptr %3, i32 0, i32 1
  %5 = call noundef i64 @_ZNK13MemoryCounter4sizeEv(ptr noundef nonnull align 8 dereferenceable(32) %4)
  %6 = call noundef i64 @_ZNK20MallocMemorySnapshot15malloc_overheadEv(ptr noundef nonnull align 8 dereferenceable(1824) %3)
  %7 = add i64 %5, %6
  %8 = call noundef i64 @_ZNK20MallocMemorySnapshot11total_arenaEv(ptr noundef nonnull align 8 dereferenceable(1824) %3)
  %9 = add i64 %7, %8
  ret i64 %9
}

; Function Attrs: mustprogress nounwind uwtable
define linkonce_odr hidden noundef i64 @_ZNK12MallocMemory10arena_sizeEv(ptr noundef nonnull align 8 dereferenceable(64) %0) #1 comdat align 2 {
  %2 = alloca ptr, align 8
  store ptr %0, ptr %2, align 8
  %3 = load ptr, ptr %2, align 8
  %4 = getelementptr inbounds %class.MallocMemory, ptr %3, i32 0, i32 1
  %5 = call noundef i64 @_ZNK13MemoryCounter4sizeEv(ptr noundef nonnull align 8 dereferenceable(32) %4)
  ret i64 %5
}

; Function Attrs: mustprogress nounwind uwtable
define linkonce_odr hidden noundef i64 @_ZNK12MallocMemory11malloc_sizeEv(ptr noundef nonnull align 8 dereferenceable(64) %0) #1 comdat align 2 {
  %2 = alloca ptr, align 8
  store ptr %0, ptr %2, align 8
  %3 = load ptr, ptr %2, align 8
  %4 = getelementptr inbounds %class.MallocMemory, ptr %3, i32 0, i32 0
  %5 = call noundef i64 @_ZNK13MemoryCounter4sizeEv(ptr noundef nonnull align 8 dereferenceable(32) %4)
  ret i64 %5
}

; Function Attrs: mustprogress nounwind uwtable
define linkonce_odr hidden noundef ptr @_ZNK20MallocMemorySnapshot7by_typeE8MEMFLAGS(ptr noundef nonnull align 8 dereferenceable(1824) %0, i8 noundef zeroext %1) #1 comdat align 2 {
  %3 = alloca ptr, align 8
  %4 = alloca i8, align 1
  %5 = alloca i32, align 4
  store ptr %0, ptr %3, align 8
  store i8 %1, ptr %4, align 1
  %6 = load ptr, ptr %3, align 8
  %7 = load i8, ptr %4, align 1
  %8 = call noundef i32 @_ZN7NMTUtil13flag_to_indexE8MEMFLAGS(i8 noundef zeroext %7)
  store i32 %8, ptr %5, align 4
  %9 = getelementptr inbounds %class.MallocMemorySnapshot, ptr %6, i32 0, i32 0
  %10 = load i32, ptr %5, align 4
  %11 = sext i32 %10 to i64
  %12 = getelementptr inbounds [28 x %class.MallocMemory], ptr %9, i64 0, i64 %11
  ret ptr %12
}

; Function Attrs: mustprogress nounwind uwtable
define linkonce_odr hidden noundef zeroext i8 @_ZN7NMTUtil13index_to_flagEi(i32 noundef %0) #1 comdat align 2 {
  %2 = alloca i32, align 4
  store i32 %0, ptr %2, align 4
  %3 = load i32, ptr %2, align 4
  %4 = trunc i32 %3 to i8
  ret i8 %4
}

; Function Attrs: mustprogress nounwind uwtable
define linkonce_odr hidden noundef ptr @_ZN19MallocMemorySummary11as_snapshotEv() #1 comdat align 2 {
  ret ptr @_ZN19MallocMemorySummary9_snapshotE
}

; Function Attrs: mustprogress nounwind uwtable
define hidden void @_ZN8NMTUsage19update_malloc_usageEv(ptr noundef nonnull align 8 dereferenceable(699) %0) #1 align 2 {
  %2 = alloca ptr, align 8
  %3 = alloca %class.ThreadCritical, align 1
  %4 = alloca ptr, align 8
  %5 = alloca i64, align 8
  %6 = alloca i32, align 4
  %7 = alloca i8, align 1
  %8 = alloca ptr, align 8
  store ptr %0, ptr %2, align 8
  %9 = load ptr, ptr %2, align 8
  call void @_ZN14ThreadCriticalC1Ev(ptr noundef nonnull align 1 dereferenceable(1) %3)
  %10 = call noundef ptr @_ZN19MallocMemorySummary11as_snapshotEv()
  store ptr %10, ptr %4, align 8
  store i64 0, ptr %5, align 8
  store i32 0, ptr %6, align 4
  br label %11

11:                                               ; preds = %33, %1
  %12 = load i32, ptr %6, align 4
  %13 = icmp slt i32 %12, 28
  br i1 %13, label %14, label %36

14:                                               ; preds = %11
  %15 = load i32, ptr %6, align 4
  %16 = call noundef zeroext i8 @_ZN7NMTUtil13index_to_flagEi(i32 noundef %15)
  store i8 %16, ptr %7, align 1
  %17 = load ptr, ptr %4, align 8
  %18 = load i8, ptr %7, align 1
  %19 = call noundef ptr @_ZNK20MallocMemorySnapshot7by_typeE8MEMFLAGS(ptr noundef nonnull align 8 dereferenceable(1824) %17, i8 noundef zeroext %18)
  store ptr %19, ptr %8, align 8
  %20 = load ptr, ptr %8, align 8
  %21 = call noundef i64 @_ZNK12MallocMemory11malloc_sizeEv(ptr noundef nonnull align 8 dereferenceable(64) %20)
  %22 = load ptr, ptr %8, align 8
  %23 = call noundef i64 @_ZNK12MallocMemory10arena_sizeEv(ptr noundef nonnull align 8 dereferenceable(64) %22)
  %24 = add i64 %21, %23
  %25 = getelementptr inbounds %class.NMTUsage, ptr %9, i32 0, i32 0
  %26 = load i32, ptr %6, align 4
  %27 = sext i32 %26 to i64
  %28 = getelementptr inbounds [28 x i64], ptr %25, i64 0, i64 %27
  store i64 %24, ptr %28, align 8
  %29 = load ptr, ptr %8, align 8
  %30 = call noundef i64 @_ZNK12MallocMemory10arena_sizeEv(ptr noundef nonnull align 8 dereferenceable(64) %29)
  %31 = load i64, ptr %5, align 8
  %32 = add i64 %31, %30
  store i64 %32, ptr %5, align 8
  br label %33

33:                                               ; preds = %14
  %34 = load i32, ptr %6, align 4
  %35 = add nsw i32 %34, 1
  store i32 %35, ptr %6, align 4
  br label %11, !llvm.loop !6

36:                                               ; preds = %11
  %37 = load ptr, ptr %4, align 8
  %38 = call noundef i64 @_ZNK20MallocMemorySnapshot5totalEv(ptr noundef nonnull align 8 dereferenceable(1824) %37)
  %39 = getelementptr inbounds %class.NMTUsage, ptr %9, i32 0, i32 1
  store i64 %38, ptr %39, align 8
  %40 = load i64, ptr %5, align 8
  %41 = getelementptr inbounds %class.NMTUsage, ptr %9, i32 0, i32 0
  %42 = call noundef i32 @_ZN7NMTUtil13flag_to_indexE8MEMFLAGS(i8 noundef zeroext 14)
  %43 = sext i32 %42 to i64
  %44 = getelementptr inbounds [28 x i64], ptr %41, i64 0, i64 %43
  %45 = load i64, ptr %44, align 8
  %46 = sub i64 %45, %40
  store i64 %46, ptr %44, align 8
  %47 = load i64, ptr %5, align 8
  %48 = getelementptr inbounds %class.NMTUsage, ptr %9, i32 0, i32 1
  %49 = load i64, ptr %48, align 8
  %50 = sub i64 %49, %47
  store i64 %50, ptr %48, align 8
  %51 = load ptr, ptr %4, align 8
  %52 = call noundef i64 @_ZNK20MallocMemorySnapshot15malloc_overheadEv(ptr noundef nonnull align 8 dereferenceable(1824) %51)
  %53 = getelementptr inbounds %class.NMTUsage, ptr %9, i32 0, i32 0
  %54 = call noundef i32 @_ZN7NMTUtil13flag_to_indexE8MEMFLAGS(i8 noundef zeroext 12)
  %55 = sext i32 %54 to i64
  %56 = getelementptr inbounds [28 x i64], ptr %53, i64 0, i64 %55
  %57 = load i64, ptr %56, align 8
  %58 = add i64 %57, %52
  store i64 %58, ptr %56, align 8
  call void @_ZN14ThreadCriticalD1Ev(ptr noundef nonnull align 1 dereferenceable(1) %3) #6
  ret void
}