; Function Attrs: mustprogress nounwind uwtable
define hidden void @_ZN8NMTUsage19update_malloc_usageEv(ptr nocapture noundef nonnull align 8 dereferenceable(699) %0) local_unnamed_addr #2 align 2 {
  %2 = alloca %class.ThreadCritical, align 1
  call void @_ZN14ThreadCriticalC1Ev(ptr noundef nonnull align 1 dereferenceable(1) %2) #8
  br label %3

3:                                                ; preds = %1, %3
  %indvars.iv = phi i64 [ 0, %1 ], [ %indvars.iv.next, %3 ]
  %.016 = phi i64 [ 0, %1 ], [ %12, %3 ]
  %4 = getelementptr inbounds [28 x %class.MallocMemory], ptr @_ZN19MallocMemorySummary9_snapshotE, i64 0, i64 %indvars.iv
  %5 = getelementptr inbounds i8, ptr %4, i64 8
  %6 = load volatile i64, ptr %5, align 8
  %7 = getelementptr inbounds i8, ptr %4, i64 40
  %8 = load volatile i64, ptr %7, align 8
  %9 = add i64 %8, %6
  %10 = getelementptr inbounds [28 x i64], ptr %0, i64 0, i64 %indvars.iv
  store i64 %9, ptr %10, align 8
  %11 = load volatile i64, ptr %7, align 8
  %12 = add i64 %11, %.016
  %indvars.iv.next = add nuw nsw i64 %indvars.iv, 1
  %exitcond.not = icmp eq i64 %indvars.iv.next, 28
  br i1 %exitcond.not, label %13, label %3, !llvm.loop !6

13:                                               ; preds = %3
  %14 = load volatile i64, ptr getelementptr inbounds (i8, ptr @_ZN19MallocMemorySummary9_snapshotE, i64 1800), align 8
  %15 = load volatile i64, ptr getelementptr inbounds (i8, ptr @_ZN19MallocMemorySummary9_snapshotE, i64 1792), align 8
  %16 = shl i64 %15, 4
  %17 = add i64 %16, %14
  %18 = call noundef i64 @_ZNK20MallocMemorySnapshot11total_arenaEv(ptr noundef nonnull align 8 dereferenceable(1824) @_ZN19MallocMemorySummary9_snapshotE) #8
  %19 = add i64 %17, %18
  %20 = getelementptr inbounds i8, ptr %0, i64 224
  %21 = getelementptr inbounds i8, ptr %0, i64 112
  %22 = load i64, ptr %21, align 8
  %23 = sub i64 %22, %12
  store i64 %23, ptr %21, align 8
  %24 = sub i64 %19, %12
  store i64 %24, ptr %20, align 8
  %25 = load volatile i64, ptr getelementptr inbounds (i8, ptr @_ZN19MallocMemorySummary9_snapshotE, i64 1792), align 8
  %26 = shl i64 %25, 4
  %27 = getelementptr inbounds i8, ptr %0, i64 96
  %28 = load i64, ptr %27, align 8
  %29 = add i64 %28, %26
  store i64 %29, ptr %27, align 8
  call void @_ZN14ThreadCriticalD1Ev(ptr noundef nonnull align 1 dereferenceable(1) %2) #8
  ret void
}